; Function Attrs: mustprogress nofree norecurse nosync nounwind sspstrong willreturn memory(readwrite, inaccessiblemem: none) uwtable
define internal void @ahci_commit_buf(ptr noundef readonly captures(none) %dma, i32 noundef %tx_bytes) #6 {
entry:
  %cur_cmd = getelementptr inbounds nuw i8, ptr %dma, i64 2488
  %0 = load ptr, ptr %cur_cmd, align 8
  %status = getelementptr inbounds nuw i8, ptr %0, i64 4
  %1 = load i32, ptr %status, align 1
  %add = add i32 %1, %tx_bytes
  store i32 %add, ptr %status, align 1
  ret void
}